; ModuleID = '27/137.c'
source_filename = "27/137.c"
target datalayout = "e-m:e-p270:32:32-p271:32:32-p272:64:64-i64:64-f80:128-n8:16:32:64-S128"
target triple = "x86_64-pc-linux-gnu"

@.str = private unnamed_addr constant [3 x i8] c"%d\00", align 1
@.str.1 = private unnamed_addr constant [12 x i8] c"%lf %lf %lf\00", align 1
@.str.2 = private unnamed_addr constant [19 x i8] c"x1=%.5lf;x2=%.5lf\0A\00", align 1
@.str.3 = private unnamed_addr constant [13 x i8] c"x1=x2=%.5lf\0A\00", align 1
@.str.4 = private unnamed_addr constant [33 x i8] c"x1=%.5lf+%.5lfi;x2=%.5lf-%.5lfi\0A\00", align 1

; Function Attrs: noinline nounwind uwtable
define dso_local i32 @main() #0 {
  %1 = alloca i32, align 4
  %2 = alloca i32, align 4
  %3 = alloca i32, align 4
  %4 = alloca double, align 8
  %5 = alloca double, align 8
  %6 = alloca double, align 8
  %7 = alloca double, align 8
  %8 = alloca double, align 8
  %9 = alloca double, align 8
  %10 = alloca double, align 8
  %11 = alloca double, align 8
  store i32 0, i32* %1, align 4
  %12 = call i32 (i8*, ...) @__isoc99_scanf(i8* getelementptr inbounds ([3 x i8], [3 x i8]* @.str, i64 0, i64 0), i32* %2)
  store i32 1, i32* %3, align 4
  br label %13

13:                                               ; preds = %75, %0
  %14 = load i32, i32* %3, align 4
  %15 = load i32, i32* %2, align 4
  %16 = icmp sle i32 %14, %15
  br i1 %16, label %17, label %78

17:                                               ; preds = %13
  %18 = call i32 (i8*, ...) @__isoc99_scanf(i8* getelementptr inbounds ([12 x i8], [12 x i8]* @.str.1, i64 0, i64 0), double* %4, double* %5, double* %6)
  %19 = load double, double* %5, align 8
  %20 = load double, double* %5, align 8
  %21 = fmul double %19, %20
  %22 = load double, double* %4, align 8
  %23 = fmul double 4.000000e+00, %22
  %24 = load double, double* %6, align 8
  %25 = fmul double %23, %24
  %26 = fsub double %21, %25
  store double %26, double* %9, align 8
  %27 = load double, double* %5, align 8
  %28 = fneg double %27
  %29 = load double, double* %4, align 8
  %30 = fmul double 2.000000e+00, %29
  %31 = fdiv double %28, %30
  store double %31, double* %10, align 8
  %32 = load double, double* %9, align 8
  %33 = fcmp ogt double %32, 0x3E7AD7F29ABCAF48
  br i1 %33, label %34, label %49

34:                                               ; preds = %17
  %35 = load double, double* %9, align 8
  %36 = call double @sqrt(double %35) #4
  %37 = load double, double* %4, align 8
  %38 = fmul double 2.000000e+00, %37
  %39 = fdiv double %36, %38
  store double %39, double* %11, align 8
  %40 = load double, double* %10, align 8
  %41 = load double, double* %11, align 8
  %42 = fadd double %40, %41
  store double %42, double* %7, align 8
  %43 = load double, double* %10, align 8
  %44 = load double, double* %11, align 8
  %45 = fsub double %43, %44
  store double %45, double* %8, align 8
  %46 = load double, double* %7, align 8
  %47 = load double, double* %8, align 8
  %48 = call i32 (i8*, ...) @printf(i8* getelementptr inbounds ([19 x i8], [19 x i8]* @.str.2, i64 0, i64 0), double %46, double %47)
  br label %74

49:                                               ; preds = %17
  %50 = load double, double* %9, align 8
  %51 = call double @llvm.fabs.f64(double %50)
  %52 = fcmp ole double %51, 0x3E7AD7F29ABCAF48
  br i1 %52, label %53, label %57

53:                                               ; preds = %49
  %54 = load double, double* %10, align 8
  store double %54, double* %8, align 8
  store double %54, double* %7, align 8
  %55 = load double, double* %7, align 8
  %56 = call i32 (i8*, ...) @printf(i8* getelementptr inbounds ([13 x i8], [13 x i8]* @.str.3, i64 0, i64 0), double %55)
  br label %73

57:                                               ; preds = %49
  %58 = load double, double* %9, align 8
  %59 = fcmp olt double %58, 0xBE7AD7F29ABCAF48
  br i1 %59, label %60, label %72

60:                                               ; preds = %57
  %61 = load double, double* %9, align 8
  %62 = fneg double %61
  %63 = call double @sqrt(double %62) #4
  %64 = load double, double* %4, align 8
  %65 = fmul double 2.000000e+00, %64
  %66 = fdiv double %63, %65
  store double %66, double* %11, align 8
  %67 = load double, double* %10, align 8
  %68 = load double, double* %11, align 8
  %69 = load double, double* %10, align 8
  %70 = load double, double* %11, align 8
  %71 = call i32 (i8*, ...) @printf(i8* getelementptr inbounds ([33 x i8], [33 x i8]* @.str.4, i64 0, i64 0), double %67, double %68, double %69, double %70)
  br label %72

72:                                               ; preds = %60, %57
  br label %73

73:                                               ; preds = %72, %53
  br label %74

74:                                               ; preds = %73, %34
  br label %75

75:                                               ; preds = %74
  %76 = load i32, i32* %3, align 4
  %77 = add nsw i32 %76, 1
  store i32 %77, i32* %3, align 4
  br label %13

78:                                               ; preds = %13
  ret i32 0
}

declare dso_local i32 @__isoc99_scanf(i8*, ...) #1

; Function Attrs: nounwind
declare dso_local double @sqrt(double) #2

declare dso_local i32 @printf(i8*, ...) #1

; Function Attrs: nounwind readnone speculatable willreturn
declare double @llvm.fabs.f64(double) #3


!llvm.module.flags = !{!0}
!llvm.ident = !{!1}

!0 = !{i32 1, !"wchar_size", i32 4}
!1 = !{!"clang version 10.0.0-4ubuntu1 "}
